(lp1
ccopy_reg
_reconstructor
p2
(cehrparse
Rule
p3
c__builtin__
object
p4
NtRp5
(dp6
S'hypos'
p7
(lp8
g2
(cehrparse
Atom
p9
g4
NtRp10
(dp11
S'args'
p12
(lp13
g2
(cehrparse
Variable
p14
g4
NtRp15
(dp16
S'name'
p17
S'x'
sbag2
(cehrparse
Function
p18
g4
NtRp19
(dp20
g12
(lp21
g2
(g14
g4
NtRp22
(dp23
g17
S'adm'
p24
sbasg17
S'Register-PDS-manager'
p25
sbasg17
S'hasActivated'
p26
sbag2
(g9
g4
NtRp27
(dp28
g12
(lp29
g2
(g14
g4
NtRp30
(dp31
g17
S'adm'
p32
sbasg17
S'no-main-role-active'
p33
sbasS'concl'
p34
g2
(g9
g4
NtRp35
(dp36
g12
(lp37
g2
(g14
g4
NtRp38
(dp39
g17
S'adm'
p40
sbag2
(g18
g4
NtRp41
(dp42
g12
(lp43
sg17
S'PDS-manager'
p44
sbasg17
S'canActivate'
p45
sbsg17
S'P1.1.1'
p46
sbag2
(g3
g4
NtRp47
(dp48
g7
(lp49
sg34
g2
(g9
g4
NtRp50
(dp51
g12
(lp52
g2
(g14
g4
NtRp53
(dp54
g17
S'adm'
p55
sbag2
(g14
g4
NtRp56
(dp57
g17
S'adm'
p58
sbag2
(g18
g4
NtRp59
(dp60
g12
(lp61
sg17
S'PDS-manager'
p62
sbasg17
S'canDeactivate'
p63
sbsg17
S'P1.1.2'
p64
sbag2
(g3
g4
NtRp65
(dp66
g7
(lp67
g2
(g9
g4
NtRp68
(dp69
g12
(lp70
g2
(g14
g4
NtRp71
(dp72
g17
S'x'
sbag2
(g18
g4
NtRp73
(dp74
g12
(lp75
g2
(g14
g4
NtRp76
(dp77
g17
S'adm'
p78
sbasg17
S'Register-PDS-manager'
p79
sbasg17
S'isDeactivated'
p80
sbasg34
g2
(g9
g4
NtRp81
(dp82
g12
(lp83
g2
(g14
g4
NtRp84
(dp85
g17
S'adm'
p86
sbag2
(g18
g4
NtRp87
(dp88
g12
(lp89
sg17
S'PDS-manager'
p90
sbasg17
S'isDeactivated'
p91
sbsg17
S'P1.1.3'
p92
sbag2
(g3
g4
NtRp93
(dp94
g7
(lp95
g2
(g9
g4
NtRp96
(dp97
g12
(lp98
g2
(g14
g4
NtRp99
(dp100
g17
S'u'
sbag2
(g18
g4
NtRp101
(dp102
g12
(lp103
sg17
S'PDS-manager'
p104
sbasg17
S'hasActivated'
p105
sbag2
(cehrparse
Constraint
p106
g4
NtRp107
(dp108
S'right'
p109
g2
(g14
g4
NtRp110
(dp111
g17
S'user'
p112
sbsS'op'
p113
S'='
sS'left'
p114
g2
(g14
g4
NtRp115
(dp116
g17
S'u'
sbsbasg34
g2
(g9
g4
NtRp117
(dp118
g12
(lp119
g2
(cehrparse
Aggregate
p120
g4
NtRp121
(dp122
g12
(lp123
g2
(g14
g4
NtRp124
(dp125
g17
S'u'
sbasg17
S'count'
p126
sbag2
(g14
g4
NtRp127
(dp128
g17
S'user'
p129
sbasg17
S'count-PDS-manager-activations'
p130
sbsg17
S'P1.1.4'
p131
sbag2
(g3
g4
NtRp132
(dp133
g7
(lp134
g2
(g9
g4
NtRp135
(dp136
g12
(lp137
g2
(g14
g4
NtRp138
(dp139
g17
S'adm1'
p140
sbag2
(g18
g4
NtRp141
(dp142
g12
(lp143
sg17
S'PDS-manager'
p144
sbasg17
S'hasActivated'
p145
sbag2
(g9
g4
NtRp146
(dp147
g12
(lp148
g2
(g14
g4
NtRp149
(dp150
g17
S'n'
sbag2
(g14
g4
NtRp151
(dp152
g17
S'adm2'
p153
sbasg17
S'pds-admin-regs'
p154
sbag2
(g106
g4
NtRp155
(dp156
g109
g2
(cehrparse
Constant
p157
g4
NtRp158
(dp159
S'number'
p160
I01
sS'value'
p161
S'0'
sbsg113
S'='
sg114
g2
(g14
g4
NtRp162
(dp163
g17
S'n'
sbsbasg34
g2
(g9
g4
NtRp164
(dp165
g12
(lp166
g2
(g14
g4
NtRp167
(dp168
g17
S'adm1'
p169
sbag2
(g18
g4
NtRp170
(dp171
g12
(lp172
g2
(g14
g4
NtRp173
(dp174
g17
S'adm2'
p175
sbasg17
S'Register-PDS-manager'
p176
sbasg17
S'canActivate'
p177
sbsg17
S'P1.1.5'
p178
sbag2
(g3
g4
NtRp179
(dp180
g7
(lp181
g2
(g9
g4
NtRp182
(dp183
g12
(lp184
g2
(g14
g4
NtRp185
(dp186
g17
S'adm1'
p187
sbag2
(g18
g4
NtRp188
(dp189
g12
(lp190
sg17
S'PDS-manager'
p191
sbasg17
S'hasActivated'
p192
sbasg34
g2
(g9
g4
NtRp193
(dp194
g12
(lp195
g2
(g14
g4
NtRp196
(dp197
g17
S'adm1'
p198
sbag2
(g14
g4
NtRp199
(dp200
g17
S'x'
sbag2
(g18
g4
NtRp201
(dp202
g12
(lp203
g2
(g14
g4
NtRp204
(dp205
g17
S'adm2'
p206
sbasg17
S'Register-PDS-manager'
p207
sbasg17
S'canDeactivate'
p208
sbsg17
S'P1.1.6'
p209
sbag2
(g3
g4
NtRp210
(dp211
g7
(lp212
g2
(g9
g4
NtRp213
(dp214
g12
(lp215
g2
(g14
g4
NtRp216
(dp217
g17
S'x'
sbag2
(g18
g4
NtRp218
(dp219
g12
(lp220
g2
(g14
g4
NtRp221
(dp222
g17
S'adm'
p223
sbasg17
S'Register-PDS-manager'
p224
sbasg17
S'hasActivated'
p225
sbasg34
g2
(g9
g4
NtRp226
(dp227
g12
(lp228
g2
(g120
g4
NtRp229
(dp230
g12
(lp231
g2
(g14
g4
NtRp232
(dp233
g17
S'x'
sbasg17
S'count'
p234
sbag2
(g14
g4
NtRp235
(dp236
g17
S'adm'
p237
sbasg17
S'pds-admin-regs'
p238
sbsg17
S'P1.1.7'
p239
sbag2
(g3
g4
NtRp240
(dp241
g7
(lp242
g2
(g9
g4
NtRp243
(dp244
g12
(lp245
g2
(g14
g4
NtRp246
(dp247
g17
S'x'
sbag2
(g18
g4
NtRp248
(dp249
g12
(lp250
g2
(g14
g4
NtRp251
(dp252
g17
S'pat'
p253
sbasg17
S'Register-patient'
p254
sbasg17
S'hasActivated'
p255
sbag2
(g9
g4
NtRp256
(dp257
g12
(lp258
g2
(g14
g4
NtRp259
(dp260
g17
S'pat'
p261
sbasg17
S'no-main-role-active'
p262
sbasg34
g2
(g9
g4
NtRp263
(dp264
g12
(lp265
g2
(g14
g4
NtRp266
(dp267
g17
S'pat'
p268
sbag2
(g18
g4
NtRp269
(dp270
g12
(lp271
sg17
S'Patient'
p272
sbasg17
S'canActivate'
p273
sbsg17
S'P1.2.1'
p274
sbag2
(g3
g4
NtRp275
(dp276
g7
(lp277
sg34
g2
(g9
g4
NtRp278
(dp279
g12
(lp280
g2
(g14
g4
NtRp281
(dp282
g17
S'pat'
p283
sbag2
(g14
g4
NtRp284
(dp285
g17
S'pat'
p286
sbag2
(g18
g4
NtRp287
(dp288
g12
(lp289
sg17
S'Patient'
p290
sbasg17
S'canDeactivate'
p291
sbsg17
S'P1.2.2'
p292
sbag2
(g3
g4
NtRp293
(dp294
g7
(lp295
g2
(g9
g4
NtRp296
(dp297
g12
(lp298
g2
(g14
g4
NtRp299
(dp300
g17
S'x'
sbag2
(g18
g4
NtRp301
(dp302
g12
(lp303
g2
(g14
g4
NtRp304
(dp305
g17
S'pat'
p306
sbasg17
S'Register-patient'
p307
sbasg17
S'isDeactivated'
p308
sbasg34
g2
(g9
g4
NtRp309
(dp310
g12
(lp311
g2
(g14
g4
NtRp312
(dp313
g17
S'pat'
p314
sbag2
(g18
g4
NtRp315
(dp316
g12
(lp317
sg17
S'Patient'
p318
sbasg17
S'isDeactivated'
p319
sbsg17
S'P1.2.3'
p320
sbag2
(g3
g4
NtRp321
(dp322
g7
(lp323
g2
(g9
g4
NtRp324
(dp325
g12
(lp326
g2
(g14
g4
NtRp327
(dp328
g17
S'u'
sbag2
(g18
g4
NtRp329
(dp330
g12
(lp331
sg17
S'Patient'
p332
sbasg17
S'hasActivated'
p333
sbag2
(g106
g4
NtRp334
(dp335
g109
g2
(g14
g4
NtRp336
(dp337
g17
S'user'
p338
sbsg113
S'='
sg114
g2
(g14
g4
NtRp339
(dp340
g17
S'u'
sbsbasg34
g2
(g9
g4
NtRp341
(dp342
g12
(lp343
g2
(g120
g4
NtRp344
(dp345
g12
(lp346
g2
(g14
g4
NtRp347
(dp348
g17
S'u'
sbasg17
S'count'
p349
sbag2
(g14
g4
NtRp350
(dp351
g17
S'user'
p352
sbasg17
S'count-patient-activations'
p353
sbsg17
S'P1.2.4'
p354
sbag2
(g3
g4
NtRp355
(dp356
g7
(lp357
g2
(g9
g4
NtRp358
(dp359
g12
(lp360
g2
(g14
g4
NtRp361
(dp362
g17
S'x'
sbag2
(g18
g4
NtRp363
(dp364
g12
(lp365
g2
(g14
g4
NtRp366
(dp367
g17
S'ag'
p368
sbasg17
S'Register-patient'
p369
sbasg17
S'hasActivated'
p370
sbag2
(g9
g4
NtRp371
(dp372
g12
(lp373
g2
(g14
g4
NtRp374
(dp375
g17
S'ag'
p376
sbasg17
S'no-main-role-active'
p377
sbag2
(cehrparse
RemoteAtom
p378
g4
NtRp379
(dp380
S'atom'
p381
g2
(g9
g4
NtRp382
(dp383
g12
(lp384
g2
(g14
g4
NtRp385
(dp386
g17
S'ag'
p387
sbag2
(g18
g4
NtRp388
(dp389
g12
(lp390
g2
(g14
g4
NtRp391
(dp392
g17
S'pat'
p393
sbasg17
S'Agent'
p394
sbasg17
S'canActivate'
p395
sbsS'location'
p396
g2
(g157
g4
NtRp397
(dp398
g160
I00
sg161
S'Spine'
p399
sbsS'issuer'
p400
g2
(g157
g4
NtRp401
(dp402
g160
I00
sg161
S'Spine'
p403
sbsbasg34
g2
(g9
g4
NtRp404
(dp405
g12
(lp406
g2
(g14
g4
NtRp407
(dp408
g17
S'ag'
p409
sbag2
(g18
g4
NtRp410
(dp411
g12
(lp412
g2
(g14
g4
NtRp413
(dp414
g17
S'pat'
p415
sbasg17
S'Agent'
p416
sbasg17
S'canActivate'
p417
sbsg17
S'P1.3.1'
p418
sbag2
(g3
g4
NtRp419
(dp420
g7
(lp421
sg34
g2
(g9
g4
NtRp422
(dp423
g12
(lp424
g2
(g14
g4
NtRp425
(dp426
g17
S'ag'
p427
sbag2
(g14
g4
NtRp428
(dp429
g17
S'ag'
p430
sbag2
(g18
g4
NtRp431
(dp432
g12
(lp433
g2
(g14
g4
NtRp434
(dp435
g17
S'pat'
p436
sbasg17
S'Agent'
p437
sbasg17
S'canDeactivate'
p438
sbsg17
S'P1.3.2'
p439
sbag2
(g3
g4
NtRp440
(dp441
g7
(lp442
g2
(g9
g4
NtRp443
(dp444
g12
(lp445
g2
(g14
g4
NtRp446
(dp447
g17
S'x'
sbag2
(g18
g4
NtRp448
(dp449
g12
(lp450
g2
(g14
g4
NtRp451
(dp452
g17
S'ag'
p453
sbasg17
S'Register-patient'
p454
sbasg17
S'isDeactivated'
p455
sbasg34
g2
(g9
g4
NtRp456
(dp457
g12
(lp458
g2
(g14
g4
NtRp459
(dp460
g17
S'ag'
p461
sbag2
(g18
g4
NtRp462
(dp463
g12
(lp464
g2
(g14
g4
NtRp465
(dp466
g17
S'pat'
p467
sbasg17
S'Agent'
p468
sbasg17
S'isDeactivated'
p469
sbsg17
S'P1.3.3'
p470
sbag2
(g3
g4
NtRp471
(dp472
g7
(lp473
g2
(g9
g4
NtRp474
(dp475
g12
(lp476
g2
(g14
g4
NtRp477
(dp478
g17
S'x'
sbag2
(g18
g4
NtRp479
(dp480
g12
(lp481
g2
(g14
g4
NtRp482
(dp483
g17
S'pat'
p484
sbasg17
S'Register-patient'
p485
sbasg17
S'isDeactivated'
p486
sbasg34
g2
(g9
g4
NtRp487
(dp488
g12
(lp489
g2
(g14
g4
NtRp490
(dp491
g17
S'ag'
p492
sbag2
(g18
g4
NtRp493
(dp494
g12
(lp495
g2
(g14
g4
NtRp496
(dp497
g17
S'pat'
p498
sbasg17
S'Agent'
p499
sbasg17
S'isDeactivated'
p500
sbsg17
S'P1.3.4'
p501
sbag2
(g3
g4
NtRp502
(dp503
g7
(lp504
g2
(g9
g4
NtRp505
(dp506
g12
(lp507
g2
(g14
g4
NtRp508
(dp509
g17
S'u'
sbag2
(g18
g4
NtRp510
(dp511
g12
(lp512
g2
(g14
g4
NtRp513
(dp514
g17
S'pat'
p515
sbasg17
S'Agent'
p516
sbasg17
S'hasActivated'
p517
sbag2
(g106
g4
NtRp518
(dp519
g109
g2
(g14
g4
NtRp520
(dp521
g17
S'user'
p522
sbsg113
S'='
sg114
g2
(g14
g4
NtRp523
(dp524
g17
S'u'
sbsbasg34
g2
(g9
g4
NtRp525
(dp526
g12
(lp527
g2
(g120
g4
NtRp528
(dp529
g12
(lp530
g2
(g14
g4
NtRp531
(dp532
g17
S'u'
sbasg17
S'count'
p533
sbag2
(g14
g4
NtRp534
(dp535
g17
S'user'
p536
sbasg17
S'count-agent-activations'
p537
sbsg17
S'P1.3.5'
p538
sbag2
(g3
g4
NtRp539
(dp540
g7
(lp541
g2
(g9
g4
NtRp542
(dp543
g12
(lp544
g2
(g14
g4
NtRp545
(dp546
g17
S'cli'
p547
sbasg17
S'no-main-role-active'
p548
sbag2
(g378
g4
NtRp549
(dp550
g381
g2
(g9
g4
NtRp551
(dp552
g12
(lp553
g2
(g14
g4
NtRp554
(dp555
g17
S'x'
sbag2
(g18
g4
NtRp556
(dp557
g12
(lp558
g2
(g14
g4
NtRp559
(dp560
g17
S'org'
p561
sbag2
(g14
g4
NtRp562
(dp563
g17
S'cli'
p564
sbag2
(g14
g4
NtRp565
(dp566
g17
S'spcty'
p567
sbag2
(g14
g4
NtRp568
(dp569
g17
S'start'
p570
sbag2
(g14
g4
NtRp571
(dp572
g17
S'end'
p573
sbasg17
S'NHS-clinician-cert'
p574
sbasg17
S'hasActivated'
p575
sbsg396
Nsg400
g2
(g14
g4
NtRp576
(dp577
g17
S'ra'
p578
sbsbag2
(g9
g4
NtRp579
(dp580
g12
(lp581
g2
(g14
g4
NtRp582
(dp583
g17
S'ra'
p584
sbag2
(g18
g4
NtRp585
(dp586
g12
(lp587
sg17
S'Registration-authority'
p588
sbasg17
S'canActivate'
p589
sbag2
(g106
g4
NtRp590
(dp591
g109
g2
(cehrparse
Range
p592
g4
NtRp593
(dp594
S'start'
p595
g2
(g14
g4
NtRp596
(dp597
g17
S'start'
p598
sbsS'end'
p599
g2
(g14
g4
NtRp600
(dp601
g17
S'end'
p602
sbsbsg113
S'in'
p603
sg114
g2
(g18
g4
NtRp604
(dp605
g12
(lp606
sg17
S'Current-time'
p607
sbsbasg34
g2
(g9
g4
NtRp608
(dp609
g12
(lp610
g2
(g14
g4
NtRp611
(dp612
g17
S'x'
sbag2
(g18
g4
NtRp613
(dp614
g12
(lp615
g2
(g14
g4
NtRp616
(dp617
g17
S'ra'
p618
sbag2
(g14
g4
NtRp619
(dp620
g17
S'org'
p621
sbasg17
S'Professional-user'
p622
sbasg17
S'canActivate'
p623
sbsg17
S'P1.4.1'
p624
sbag2
(g3
g4
NtRp625
(dp626
g7
(lp627
g2
(g9
g4
NtRp628
(dp629
g12
(lp630
g2
(g14
g4
NtRp631
(dp632
g17
S'cli'
p633
sbasg17
S'no-main-role-active'
p634
sbag2
(g378
g4
NtRp635
(dp636
g381
g2
(g9
g4
NtRp637
(dp638
g12
(lp639
g2
(g14
g4
NtRp640
(dp641
g17
S'x'
sbag2
(g18
g4
NtRp642
(dp643
g12
(lp644
g2
(g14
g4
NtRp645
(dp646
g17
S'org'
p647
sbag2
(g14
g4
NtRp648
(dp649
g17
S'cli'
p650
sbag2
(g14
g4
NtRp651
(dp652
g17
S'spcty'
p653
sbag2
(g14
g4
NtRp654
(dp655
g17
S'start'
p656
sbag2
(g14
g4
NtRp657
(dp658
g17
S'end'
p659
sbasg17
S'NHS-clinician-cert'
p660
sbasg17
S'hasActivated'
p661
sbsg396
g2
(g14
g4
NtRp662
(dp663
g17
S'ra'
p664
sbsg400
g2
(g14
g4
NtRp665
(dp666
g17
S'ra'
p667
sbsbag2
(g9
g4
NtRp668
(dp669
g12
(lp670
g2
(g14
g4
NtRp671
(dp672
g17
S'ra'
p673
sbag2
(g18
g4
NtRp674
(dp675
g12
(lp676
sg17
S'Registration-authority'
p677
sbasg17
S'canActivate'
p678
sbag2
(g106
g4
NtRp679
(dp680
g109
g2
(g592
g4
NtRp681
(dp682
g595
g2
(g14
g4
NtRp683
(dp684
g17
S'start'
p685
sbsg599
g2
(g14
g4
NtRp686
(dp687
g17
S'end'
p688
sbsbsg113
S'in'
p689
sg114
g2
(g18
g4
NtRp690
(dp691
g12
(lp692
sg17
S'Current-time'
p693
sbsbasg34
g2
(g9
g4
NtRp694
(dp695
g12
(lp696
g2
(g14
g4
NtRp697
(dp698
g17
S'x'
sbag2
(g18
g4
NtRp699
(dp700
g12
(lp701
g2
(g14
g4
NtRp702
(dp703
g17
S'ra'
p704
sbag2
(g14
g4
NtRp705
(dp706
g17
S'org'
p707
sbasg17
S'Professional-user'
p708
sbasg17
S'canActivate'
p709
sbsg17
S'P1.4.2'
p710
sbag2
(g3
g4
NtRp711
(dp712
g7
(lp713
g2
(g9
g4
NtRp714
(dp715
g12
(lp716
g2
(g14
g4
NtRp717
(dp718
g17
S'cg'
p719
sbasg17
S'no-main-role-active'
p720
sbag2
(g378
g4
NtRp721
(dp722
g381
g2
(g9
g4
NtRp723
(dp724
g12
(lp725
g2
(g14
g4
NtRp726
(dp727
g17
S'x'
sbag2
(g18
g4
NtRp728
(dp729
g12
(lp730
g2
(g14
g4
NtRp731
(dp732
g17
S'org'
p733
sbag2
(g14
g4
NtRp734
(dp735
g17
S'cg'
p736
sbag2
(g14
g4
NtRp737
(dp738
g17
S'start'
p739
sbag2
(g14
g4
NtRp740
(dp741
g17
S'end'
p742
sbasg17
S'NHS-Caldicott-guardian-cert'
p743
sbasg17
S'hasActivated'
p744
sbsg396
Nsg400
g2
(g14
g4
NtRp745
(dp746
g17
S'ra'
p747
sbsbag2
(g9
g4
NtRp748
(dp749
g12
(lp750
g2
(g14
g4
NtRp751
(dp752
g17
S'ra'
p753
sbag2
(g18
g4
NtRp754
(dp755
g12
(lp756
sg17
S'Registration-authority'
p757
sbasg17
S'canActivate'
p758
sbag2
(g106
g4
NtRp759
(dp760
g109
g2
(g592
g4
NtRp761
(dp762
g595
g2
(g14
g4
NtRp763
(dp764
g17
S'start'
p765
sbsg599
g2
(g14
g4
NtRp766
(dp767
g17
S'end'
p768
sbsbsg113
S'in'
p769
sg114
g2
(g18
g4
NtRp770
(dp771
g12
(lp772
sg17
S'Current-time'
p773
sbsbasg34
g2
(g9
g4
NtRp774
(dp775
g12
(lp776
g2
(g14
g4
NtRp777
(dp778
g17
S'x'
sbag2
(g18
g4
NtRp779
(dp780
g12
(lp781
g2
(g14
g4
NtRp782
(dp783
g17
S'ra'
p784
sbag2
(g14
g4
NtRp785
(dp786
g17
S'org'
p787
sbasg17
S'Professional-user'
p788
sbasg17
S'canActivate'
p789
sbsg17
S'P1.4.3'
p790
sbag2
(g3
g4
NtRp791
(dp792
g7
(lp793
g2
(g9
g4
NtRp794
(dp795
g12
(lp796
g2
(g14
g4
NtRp797
(dp798
g17
S'cg'
p799
sbasg17
S'no-main-role-active'
p800
sbag2
(g378
g4
NtRp801
(dp802
g381
g2
(g9
g4
NtRp803
(dp804
g12
(lp805
g2
(g14
g4
NtRp806
(dp807
g17
S'x'
sbag2
(g18
g4
NtRp808
(dp809
g12
(lp810
g2
(g14
g4
NtRp811
(dp812
g17
S'org'
p813
sbag2
(g14
g4
NtRp814
(dp815
g17
S'cg'
p816
sbag2
(g14
g4
NtRp817
(dp818
g17
S'start'
p819
sbag2
(g14
g4
NtRp820
(dp821
g17
S'end'
p822
sbasg17
S'NHS-Caldicott-guardian-cert'
p823
sbasg17
S'hasActivated'
p824
sbsg396
g2
(g14
g4
NtRp825
(dp826
g17
S'ra'
p827
sbsg400
g2
(g14
g4
NtRp828
(dp829
g17
S'ra'
p830
sbsbag2
(g9
g4
NtRp831
(dp832
g12
(lp833
g2
(g14
g4
NtRp834
(dp835
g17
S'ra'
p836
sbag2
(g18
g4
NtRp837
(dp838
g12
(lp839
sg17
S'Registration-authority'
p840
sbasg17
S'canActivate'
p841
sbag2
(g106
g4
NtRp842
(dp843
g109
g2
(g592
g4
NtRp844
(dp845
g595
g2
(g14
g4
NtRp846
(dp847
g17
S'start'
p848
sbsg599
g2
(g14
g4
NtRp849
(dp850
g17
S'end'
p851
sbsbsg113
S'in'
p852
sg114
g2
(g18
g4
NtRp853
(dp854
g12
(lp855
sg17
S'Current-time'
p856
sbsbasg34
g2
(g9
g4
NtRp857
(dp858
g12
(lp859
g2
(g14
g4
NtRp860
(dp861
g17
S'x'
sbag2
(g18
g4
NtRp862
(dp863
g12
(lp864
g2
(g14
g4
NtRp865
(dp866
g17
S'ra'
p867
sbag2
(g14
g4
NtRp868
(dp869
g17
S'org'
p870
sbasg17
S'Professional-user'
p871
sbasg17
S'canActivate'
p872
sbsg17
S'P1.4.4'
p873
sbag2
(g3
g4
NtRp874
(dp875
g7
(lp876
sg34
g2
(g9
g4
NtRp877
(dp878
g12
(lp879
g2
(g14
g4
NtRp880
(dp881
g17
S'x'
sbag2
(g14
g4
NtRp882
(dp883
g17
S'x'
sbag2
(g18
g4
NtRp884
(dp885
g12
(lp886
g2
(g14
g4
NtRp887
(dp888
g17
S'ra'
p889
sbag2
(g14
g4
NtRp890
(dp891
g17
S'org'
p892
sbasg17
S'Professional-user'
p893
sbasg17
S'canDeactivate'
p894
sbsg17
S'P1.4.5'
p895
sbag2
(g3
g4
NtRp896
(dp897
g7
(lp898
g2
(g9
g4
NtRp899
(dp900
g12
(lp901
g2
(g14
g4
NtRp902
(dp903
g17
S'u'
sbag2
(g18
g4
NtRp904
(dp905
g12
(lp906
g2
(g14
g4
NtRp907
(dp908
g17
S'ra'
p909
sbag2
(g14
g4
NtRp910
(dp911
g17
S'org'
p912
sbasg17
S'Professional-user'
p913
sbasg17
S'hasActivated'
p914
sbag2
(g106
g4
NtRp915
(dp916
g109
g2
(g14
g4
NtRp917
(dp918
g17
S'user'
p919
sbsg113
S'='
sg114
g2
(g14
g4
NtRp920
(dp921
g17
S'u'
sbsbasg34
g2
(g9
g4
NtRp922
(dp923
g12
(lp924
g2
(g120
g4
NtRp925
(dp926
g12
(lp927
g2
(g14
g4
NtRp928
(dp929
g17
S'u'
sbasg17
S'count'
p930
sbag2
(g14
g4
NtRp931
(dp932
g17
S'user'
p933
sbasg17
S'count-professional-user-activations'
p934
sbsg17
S'P1.4.6'
p935
sbag2
(g3
g4
NtRp936
(dp937
g7
(lp938
g2
(g9
g4
NtRp939
(dp940
g12
(lp941
g2
(g14
g4
NtRp942
(dp943
g17
S'n'
sbag2
(g14
g4
NtRp944
(dp945
g17
S'user'
p946
sbasg17
S'count-agent-activations'
p947
sbag2
(g9
g4
NtRp948
(dp949
g12
(lp950
g2
(g14
g4
NtRp951
(dp952
g17
S'n'
sbag2
(g14
g4
NtRp953
(dp954
g17
S'user'
p955
sbasg17
S'count-patient-activations'
p956
sbag2
(g9
g4
NtRp957
(dp958
g12
(lp959
g2
(g14
g4
NtRp960
(dp961
g17
S'n'
sbag2
(g14
g4
NtRp962
(dp963
g17
S'user'
p964
sbasg17
S'count-PDS-manager-activations'
p965
sbag2
(g9
g4
NtRp966
(dp967
g12
(lp968
g2
(g14
g4
NtRp969
(dp970
g17
S'n'
sbag2
(g14
g4
NtRp971
(dp972
g17
S'user'
p973
sbasg17
S'count-professional-user-activations'
p974
sbag2
(g106
g4
NtRp975
(dp976
g109
g2
(g157
g4
NtRp977
(dp978
g160
I01
sg161
S'0'
sbsg113
S'='
sg114
g2
(g14
g4
NtRp979
(dp980
g17
S'n'
sbsbasg34
g2
(g9
g4
NtRp981
(dp982
g12
(lp983
g2
(g14
g4
NtRp984
(dp985
g17
S'user'
p986
sbasg17
S'no-main-role-active'
p987
sbsg17
S'P1.5.1'
p988
sbag2
(g3
g4
NtRp989
(dp990
g7
(lp991
g2
(g378
g4
NtRp992
(dp993
g381
g2
(g9
g4
NtRp994
(dp995
g12
(lp996
g2
(g14
g4
NtRp997
(dp998
g17
S'x'
sbag2
(g18
g4
NtRp999
(dp1000
g12
(lp1001
g2
(g14
g4
NtRp1002
(dp1003
g17
S'ra'
p1004
sbag2
(g14
g4
NtRp1005
(dp1006
g17
S'start'
p1007
sbag2
(g14
g4
NtRp1008
(dp1009
g17
S'end'
p1010
sbasg17
S'NHS-registration-authority'
p1011
sbasg17
S'hasActivated'
p1012
sbsg396
Nsg400
g2
(g157
g4
NtRp1013
(dp1014
g160
I00
sg161
S'NHS'
p1015
sbsbag2
(g106
g4
NtRp1016
(dp1017
g109
g2
(g592
g4
NtRp1018
(dp1019
g595
g2
(g14
g4
NtRp1020
(dp1021
g17
S'start'
p1022
sbsg599
g2
(g14
g4
NtRp1023
(dp1024
g17
S'end'
p1025
sbsbsg113
S'in'
p1026
sg114
g2
(g18
g4
NtRp1027
(dp1028
g12
(lp1029
sg17
S'Current-time'
p1030
sbsbasg34
g2
(g9
g4
NtRp1031
(dp1032
g12
(lp1033
g2
(g14
g4
NtRp1034
(dp1035
g17
S'ra'
p1036
sbag2
(g18
g4
NtRp1037
(dp1038
g12
(lp1039
sg17
S'Registration-authority'
p1040
sbasg17
S'canActivate'
p1041
sbsg17
S'P1.5.2'
p1042
sbag2
(g3
g4
NtRp1043
(dp1044
g7
(lp1045
g2
(g378
g4
NtRp1046
(dp1047
g381
g2
(g9
g4
NtRp1048
(dp1049
g12
(lp1050
g2
(g14
g4
NtRp1051
(dp1052
g17
S'x'
sbag2
(g18
g4
NtRp1053
(dp1054
g12
(lp1055
g2
(g14
g4
NtRp1056
(dp1057
g17
S'ra'
p1058
sbag2
(g14
g4
NtRp1059
(dp1060
g17
S'start'
p1061
sbag2
(g14
g4
NtRp1062
(dp1063
g17
S'end'
p1064
sbasg17
S'NHS-registration-authority'
p1065
sbasg17
S'hasActivated'
p1066
sbsg396
g2
(g14
g4
NtRp1067
(dp1068
g17
S'ra'
p1069
sbsg400
g2
(g157
g4
NtRp1070
(dp1071
g160
I00
sg161
S'NHS'
p1072
sbsbag2
(g106
g4
NtRp1073
(dp1074
g109
g2
(g592
g4
NtRp1075
(dp1076
g595
g2
(g14
g4
NtRp1077
(dp1078
g17
S'start'
p1079
sbsg599
g2
(g14
g4
NtRp1080
(dp1081
g17
S'end'
p1082
sbsbsg113
S'in'
p1083
sg114
g2
(g18
g4
NtRp1084
(dp1085
g12
(lp1086
sg17
S'Current-time'
p1087
sbsbasg34
g2
(g9
g4
NtRp1088
(dp1089
g12
(lp1090
g2
(g14
g4
NtRp1091
(dp1092
g17
S'ra'
p1093
sbag2
(g18
g4
NtRp1094
(dp1095
g12
(lp1096
sg17
S'Registration-authority'
p1097
sbasg17
S'canActivate'
p1098
sbsg17
S'P1.5.3'
p1099
sbag2
(g3
g4
NtRp1100
(dp1101
g7
(lp1102
g2
(g9
g4
NtRp1103
(dp1104
g12
(lp1105
g2
(g14
g4
NtRp1106
(dp1107
g17
S'adm'
p1108
sbag2
(g18
g4
NtRp1109
(dp1110
g12
(lp1111
sg17
S'PDS-manager'
p1112
sbasg17
S'hasActivated'
p1113
sbag2
(g9
g4
NtRp1114
(dp1115
g12
(lp1116
g2
(g14
g4
NtRp1117
(dp1118
g17
S'n'
sbag2
(g14
g4
NtRp1119
(dp1120
g17
S'pat'
p1121
sbasg17
S'patient-regs'
p1122
sbag2
(g106
g4
NtRp1123
(dp1124
g109
g2
(g157
g4
NtRp1125
(dp1126
g160
I01
sg161
S'0'
sbsg113
S'='
sg114
g2
(g14
g4
NtRp1127
(dp1128
g17
S'n'
sbsbasg34
g2
(g9
g4
NtRp1129
(dp1130
g12
(lp1131
g2
(g14
g4
NtRp1132
(dp1133
g17
S'adm'
p1134
sbag2
(g18
g4
NtRp1135
(dp1136
g12
(lp1137
g2
(g14
g4
NtRp1138
(dp1139
g17
S'pat'
p1140
sbasg17
S'Register-patient'
p1141
sbasg17
S'canActivate'
p1142
sbsg17
S'P2.1.1'
p1143
sbag2
(g3
g4
NtRp1144
(dp1145
g7
(lp1146
g2
(g9
g4
NtRp1147
(dp1148
g12
(lp1149
g2
(g14
g4
NtRp1150
(dp1151
g17
S'adm'
p1152
sbag2
(g18
g4
NtRp1153
(dp1154
g12
(lp1155
sg17
S'PDS-manager'
p1156
sbasg17
S'hasActivated'
p1157
sbasg34
g2
(g9
g4
NtRp1158
(dp1159
g12
(lp1160
g2
(g14
g4
NtRp1161
(dp1162
g17
S'adm'
p1163
sbag2
(g14
g4
NtRp1164
(dp1165
g17
S'x'
sbag2
(g18
g4
NtRp1166
(dp1167
g12
(lp1168
g2
(g14
g4
NtRp1169
(dp1170
g17
S'pat'
p1171
sbasg17
S'Register-patient'
p1172
sbasg17
S'canDeactivate'
p1173
sbsg17
S'P2.1.2'
p1174
sbag2
(g3
g4
NtRp1175
(dp1176
g7
(lp1177
g2
(g9
g4
NtRp1178
(dp1179
g12
(lp1180
g2
(g14
g4
NtRp1181
(dp1182
g17
S'x'
sbag2
(g18
g4
NtRp1183
(dp1184
g12
(lp1185
g2
(g14
g4
NtRp1186
(dp1187
g17
S'pat'
p1188
sbasg17
S'Register-patient'
p1189
sbasg17
S'hasActivated'
p1190
sbasg34
g2
(g9
g4
NtRp1191
(dp1192
g12
(lp1193
g2
(g120
g4
NtRp1194
(dp1195
g12
(lp1196
g2
(g14
g4
NtRp1197
(dp1198
g17
S'x'
sbasg17
S'count'
p1199
sbag2
(g14
g4
NtRp1200
(dp1201
g17
S'pat'
p1202
sbasg17
S'patient-regs'
p1203
sbsg17
S'P2.1.3'
p1204
sbag2
(g3
g4
NtRp1205
(dp1206
g7
(lp1207
g2
(g9
g4
NtRp1208
(dp1209
g12
(lp1210
g2
(g14
g4
NtRp1211
(dp1212
g17
S'pat'
p1213
sbag2
(g18
g4
NtRp1214
(dp1215
g12
(lp1216
sg17
S'Patient'
p1217
sbasg17
S'hasActivated'
p1218
sbasg34
g2
(g9
g4
NtRp1219
(dp1220
g12
(lp1221
g2
(g14
g4
NtRp1222
(dp1223
g17
S'pat'
p1224
sbag2
(g378
g4
NtRp1225
(dp1226
g381
g2
(g9
g4
NtRp1227
(dp1228
g12
(lp1229
g2
(g14
g4
NtRp1230
(dp1231
g17
S'x'
sbag2
(g18
g4
NtRp1232
(dp1233
g12
(lp1234
g2
(g14
g4
NtRp1235
(dp1236
g17
S'pat'
p1237
sbasg17
S'Register-patient'
p1238
sbasg17
S'hasActivated'
p1239
sbsg396
Nsg400
g2
(g157
g4
NtRp1240
(dp1241
g160
I00
sg161
S'PDS'
p1242
sbsbasg17
S'canReqCred'
p1243
sbsg17
S'P2.2.1'
p1244
sbag2
(g3
g4
NtRp1245
(dp1246
g7
(lp1247
g2
(g9
g4
NtRp1248
(dp1249
g12
(lp1250
g2
(g14
g4
NtRp1251
(dp1252
g17
S'ag'
p1253
sbag2
(g18
g4
NtRp1254
(dp1255
g12
(lp1256
g2
(g14
g4
NtRp1257
(dp1258
g17
S'pat'
p1259
sbasg17
S'Agent'
p1260
sbasg17
S'hasActivated'
p1261
sbasg34
g2
(g9
g4
NtRp1262
(dp1263
g12
(lp1264
g2
(g14
g4
NtRp1265
(dp1266
g17
S'ag'
p1267
sbag2
(g378
g4
NtRp1268
(dp1269
g381
g2
(g9
g4
NtRp1270
(dp1271
g12
(lp1272
g2
(g14
g4
NtRp1273
(dp1274
g17
S'x'
sbag2
(g18
g4
NtRp1275
(dp1276
g12
(lp1277
g2
(g14
g4
NtRp1278
(dp1279
g17
S'pat'
p1280
sbasg17
S'Register-patient'
p1281
sbasg17
S'hasActivated'
p1282
sbsg396
Nsg400
g2
(g157
g4
NtRp1283
(dp1284
g160
I00
sg161
S'PDS'
p1285
sbsbasg17
S'canReqCred'
p1286
sbsg17
S'P2.2.2'
p1287
sbag2
(g3
g4
NtRp1288
(dp1289
g7
(lp1290
g2
(g9
g4
NtRp1291
(dp1292
g12
(lp1293
g2
(g14
g4
NtRp1294
(dp1295
g17
S'usr'
p1296
sbag2
(g18
g4
NtRp1297
(dp1298
g12
(lp1299
g2
(g14
g4
NtRp1300
(dp1301
g17
S'ra'
p1302
sbag2
(g14
g4
NtRp1303
(dp1304
g17
S'org'
p1305
sbasg17
S'Professional-user'
p1306
sbasg17
S'hasActivated'
p1307
sbasg34
g2
(g9
g4
NtRp1308
(dp1309
g12
(lp1310
g2
(g14
g4
NtRp1311
(dp1312
g17
S'usr'
p1313
sbag2
(g378
g4
NtRp1314
(dp1315
g381
g2
(g9
g4
NtRp1316
(dp1317
g12
(lp1318
g2
(g14
g4
NtRp1319
(dp1320
g17
S'x'
sbag2
(g18
g4
NtRp1321
(dp1322
g12
(lp1323
g2
(g14
g4
NtRp1324
(dp1325
g17
S'pat'
p1326
sbasg17
S'Register-patient'
p1327
sbasg17
S'hasActivated'
p1328
sbsg396
Nsg400
g2
(g157
g4
NtRp1329
(dp1330
g160
I00
sg161
S'PDS'
p1331
sbsbasg17
S'canReqCred'
p1332
sbsg17
S'P2.2.3'
p1333
sbag2
(g3
g4
NtRp1334
(dp1335
g7
(lp1336
g2
(g378
g4
NtRp1337
(dp1338
g381
g2
(g9
g4
NtRp1339
(dp1340
g12
(lp1341
g2
(g14
g4
NtRp1342
(dp1343
g17
S'x'
sbag2
(g18
g4
NtRp1344
(dp1345
g12
(lp1346
g2
(g14
g4
NtRp1347
(dp1348
g17
S'org'
p1349
sbag2
(g14
g4
NtRp1350
(dp1351
g17
S'start'
p1352
sbag2
(g14
g4
NtRp1353
(dp1354
g17
S'end'
p1355
sbasg17
S'NHS-health-org-cert'
p1356
sbasg17
S'hasActivated'
p1357
sbsg396
Nsg400
g2
(g14
g4
NtRp1358
(dp1359
g17
S'ra'
p1360
sbsbag2
(g9
g4
NtRp1361
(dp1362
g12
(lp1363
g2
(g14
g4
NtRp1364
(dp1365
g17
S'ra'
p1366
sbag2
(g18
g4
NtRp1367
(dp1368
g12
(lp1369
sg17
S'Registration-authority'
p1370
sbasg17
S'canActivate'
p1371
sbasg34
g2
(g9
g4
NtRp1372
(dp1373
g12
(lp1374
g2
(g14
g4
NtRp1375
(dp1376
g17
S'org'
p1377
sbag2
(g378
g4
NtRp1378
(dp1379
g381
g2
(g9
g4
NtRp1380
(dp1381
g12
(lp1382
g2
(g14
g4
NtRp1383
(dp1384
g17
S'x'
sbag2
(g18
g4
NtRp1385
(dp1386
g12
(lp1387
g2
(g14
g4
NtRp1388
(dp1389
g17
S'pat'
p1390
sbasg17
S'Register-patient'
p1391
sbasg17
S'hasActivated'
p1392
sbsg396
Nsg400
g2
(g157
g4
NtRp1393
(dp1394
g160
I00
sg161
S'PDS'
p1395
sbsbasg17
S'canReqCred'
p1396
sbsg17
S'P2.2.4'
p1397
sbag2
(g3
g4
NtRp1398
(dp1399
g7
(lp1400
g2
(g378
g4
NtRp1401
(dp1402
g381
g2
(g9
g4
NtRp1403
(dp1404
g12
(lp1405
g2
(g14
g4
NtRp1406
(dp1407
g17
S'x'
sbag2
(g18
g4
NtRp1408
(dp1409
g12
(lp1410
g2
(g14
g4
NtRp1411
(dp1412
g17
S'org'
p1413
sbag2
(g14
g4
NtRp1414
(dp1415
g17
S'start'
p1416
sbag2
(g14
g4
NtRp1417
(dp1418
g17
S'end'
p1419
sbasg17
S'NHS-health-org-cert'
p1420
sbasg17
S'hasActivated'
p1421
sbsg396
g2
(g14
g4
NtRp1422
(dp1423
g17
S'org'
p1424
sbsg400
g2
(g14
g4
NtRp1425
(dp1426
g17
S'ra'
p1427
sbsbag2
(g9
g4
NtRp1428
(dp1429
g12
(lp1430
g2
(g14
g4
NtRp1431
(dp1432
g17
S'ra'
p1433
sbag2
(g18
g4
NtRp1434
(dp1435
g12
(lp1436
sg17
S'Registration-authority'
p1437
sbasg17
S'canActivate'
p1438
sbasg34
g2
(g9
g4
NtRp1439
(dp1440
g12
(lp1441
g2
(g14
g4
NtRp1442
(dp1443
g17
S'org'
p1444
sbag2
(g378
g4
NtRp1445
(dp1446
g381
g2
(g9
g4
NtRp1447
(dp1448
g12
(lp1449
g2
(g14
g4
NtRp1450
(dp1451
g17
S'x'
sbag2
(g18
g4
NtRp1452
(dp1453
g12
(lp1454
g2
(g14
g4
NtRp1455
(dp1456
g17
S'pat'
p1457
sbasg17
S'Register-patient'
p1458
sbasg17
S'hasActivated'
p1459
sbsg396
Nsg400
g2
(g157
g4
NtRp1460
(dp1461
g160
I00
sg161
S'PDS'
p1462
sbsbasg17
S'canReqCred'
p1463
sbsg17
S'P2.2.5'
p1464
sbag2
(g3
g4
NtRp1465
(dp1466
g7
(lp1467
g2
(g9
g4
NtRp1468
(dp1469
g12
(lp1470
g2
(g14
g4
NtRp1471
(dp1472
g17
S'ra'
p1473
sbag2
(g18
g4
NtRp1474
(dp1475
g12
(lp1476
sg17
S'Registration-authority'
p1477
sbasg17
S'canActivate'
p1478
sbasg34
g2
(g9
g4
NtRp1479
(dp1480
g12
(lp1481
g2
(g14
g4
NtRp1482
(dp1483
g17
S'ra'
p1484
sbag2
(g378
g4
NtRp1485
(dp1486
g381
g2
(g9
g4
NtRp1487
(dp1488
g12
(lp1489
g2
(g14
g4
NtRp1490
(dp1491
g17
S'x'
sbag2
(g18
g4
NtRp1492
(dp1493
g12
(lp1494
g2
(g14
g4
NtRp1495
(dp1496
g17
S'pat'
p1497
sbasg17
S'Register-patient'
p1498
sbasg17
S'hasActivated'
p1499
sbsg396
Nsg400
g2
(g157
g4
NtRp1500
(dp1501
g160
I00
sg161
S'PDS'
p1502
sbsbasg17
S'canReqCred'
p1503
sbsg17
S'P2.2.5'
p1504
sbag2
(g3
g4
NtRp1505
(dp1506
g7
(lp1507
g2
(g106
g4
NtRp1508
(dp1509
g109
g2
(g157
g4
NtRp1510
(dp1511
g160
I00
sg161
S'Spine'
p1512
sbsg113
S'='
sg114
g2
(g14
g4
NtRp1513
(dp1514
g17
S'spine'
p1515
sbsbasg34
g2
(g9
g4
NtRp1516
(dp1517
g12
(lp1518
g2
(g14
g4
NtRp1519
(dp1520
g17
S'spine'
p1521
sbag2
(g378
g4
NtRp1522
(dp1523
g381
g2
(g9
g4
NtRp1524
(dp1525
g12
(lp1526
g2
(g14
g4
NtRp1527
(dp1528
g17
S'x'
sbag2
(g18
g4
NtRp1529
(dp1530
g12
(lp1531
g2
(g14
g4
NtRp1532
(dp1533
g17
S'pat'
p1534
sbasg17
S'Register-patient'
p1535
sbasg17
S'hasActivated'
p1536
sbsg396
Nsg400
g2
(g157
g4
NtRp1537
(dp1538
g160
I00
sg161
S'PDS'
p1539
sbsbasg17
S'canReqCred'
p1540
sbsg17
S'P2.2.5'
p1541
sba.